target datalayout = "e-m:e-p270:32:32-p271:32:32-p272:64:64-i64:64-i128:128-f80:128-n8:16:32:64-S128"
target triple = "x86_64-pc-linux-gnu"

%"class.llvm::function_ref.27" = type { ptr, i64 }
%class.anon.28 = type { ptr }

; Function Attrs: mustprogress nounwind uwtable
define internal void @"_ZN4llvm12function_refIFbPKN5clang13CXXRecordDeclEEEC2IZNKS2_24isProvablyNotDerivedFromES4_E3$_0EEOT_PNSt9enable_ifIXntsr3std7is_sameINS_12remove_cvrefIS9_E4typeES6_EE5valueEvE4typeEPNSB_IXooL_ZNSt17integral_constantIbLb0EE5valueEEsr3std14is_convertibleIDTclclsr3stdE7declvalIS9_EEclL_ZSt7declvalIS4_EDTcl9__declvalIS9_ELi0EEEvEEEEbEE5valueEvE4typeE"(ptr noundef nonnull align 8 dereferenceable(16) %0, ptr noundef nonnull align 8 dereferenceable(8) %1, ptr noundef %2, ptr noundef %3) unnamed_addr #0 align 2 {
  %5 = alloca ptr, align 8
  %6 = alloca ptr, align 8
  %7 = alloca ptr, align 8
  %8 = alloca ptr, align 8
  store ptr %0, ptr %5, align 8
  store ptr %1, ptr %6, align 8
  store ptr %2, ptr %7, align 8
  store ptr %3, ptr %8, align 8
  %9 = load ptr, ptr %5, align 8
  %10 = getelementptr inbounds nuw %"class.llvm::function_ref.27", ptr %9, i32 0, i32 0
  store ptr @"_ZN4llvm12function_refIFbPKN5clang13CXXRecordDeclEEE11callback_fnIZNKS2_24isProvablyNotDerivedFromES4_E3$_0EEblS4_", ptr %10, align 8
  %11 = getelementptr inbounds nuw %"class.llvm::function_ref.27", ptr %9, i32 0, i32 1
  %12 = load ptr, ptr %6, align 8
  %13 = ptrtoint ptr %12 to i64
  store i64 %13, ptr %11, align 8
  ret void
}

; Function Attrs: mustprogress nounwind uwtable
define linkonce_odr hidden noundef ptr @_ZNK5clang13CXXRecordDecl16getCanonicalDeclEv(ptr noundef nonnull align 8 dereferenceable(144) %0) #0 comdat align 2 {
  %2 = alloca ptr, align 8
  store ptr %0, ptr %2, align 8
  %3 = load ptr, ptr %2, align 8
  %4 = load ptr, ptr %3, align 8
  %5 = getelementptr inbounds ptr, ptr %4, i64 4
  %6 = load ptr, ptr %5, align 8
  %7 = call noundef ptr %6(ptr noundef nonnull align 8 dereferenceable(144) %3)
  ret ptr %7
}

; Function Attrs: mustprogress nounwind uwtable
define dso_local noundef zeroext i1 @_ZNK5clang13CXXRecordDecl24isProvablyNotDerivedFromEPKS0_(ptr noundef nonnull align 8 dereferenceable(144) %0, ptr noundef %1) #0 align 2 {
  %3 = alloca ptr, align 8
  %4 = alloca ptr, align 8
  %5 = alloca ptr, align 8
  %6 = alloca %"class.llvm::function_ref.27", align 8
  %7 = alloca %class.anon.28, align 8
  store ptr %0, ptr %3, align 8
  store ptr %1, ptr %4, align 8
  %8 = load ptr, ptr %3, align 8
  %9 = load ptr, ptr %4, align 8
  %10 = call noundef ptr @_ZNK5clang13CXXRecordDecl16getCanonicalDeclEv(ptr noundef nonnull align 8 dereferenceable(144) %9)
  store ptr %10, ptr %5, align 8
  %11 = getelementptr inbounds nuw %class.anon.28, ptr %7, i32 0, i32 0
  %12 = load ptr, ptr %5, align 8
  store ptr %12, ptr %11, align 8
  call void @"_ZN4llvm12function_refIFbPKN5clang13CXXRecordDeclEEEC2IZNKS2_24isProvablyNotDerivedFromES4_E3$_0EEOT_PNSt9enable_ifIXntsr3std7is_sameINS_12remove_cvrefIS9_E4typeES6_EE5valueEvE4typeEPNSB_IXooL_ZNSt17integral_constantIbLb0EE5valueEEsr3std14is_convertibleIDTclclsr3stdE7declvalIS9_EEclL_ZSt7declvalIS4_EDTcl9__declvalIS9_ELi0EEEvEEEEbEE5valueEvE4typeE"(ptr noundef nonnull align 8 dereferenceable(16) %6, ptr noundef nonnull align 8 dereferenceable(8) %7, ptr noundef null, ptr noundef null)
  %13 = getelementptr inbounds nuw { ptr, i64 }, ptr %6, i32 0, i32 0
  %14 = load ptr, ptr %13, align 8
  %15 = getelementptr inbounds nuw { ptr, i64 }, ptr %6, i32 0, i32 1
  %16 = load i64, ptr %15, align 8
  %17 = call noundef zeroext i1 @_ZNK5clang13CXXRecordDecl11forallBasesEN4llvm12function_refIFbPKS0_EEE(ptr noundef nonnull align 8 dereferenceable(144) %8, ptr %14, i64 %16)
  ret i1 %17
}