; Function Attrs: mustprogress nounwind uwtable
define dso_local noundef zeroext i1 @_ZNK5clang13CXXRecordDecl24isProvablyNotDerivedFromEPKS0_(ptr noundef nonnull align 8 dereferenceable(144) %0, ptr noundef %1) local_unnamed_addr #0 align 2 {
  %3 = alloca %class.anon.28, align 8
  %4 = load ptr, ptr %1, align 8
  %5 = getelementptr inbounds i8, ptr %4, i64 32
  %6 = load ptr, ptr %5, align 8
  %7 = tail call noundef ptr %6(ptr noundef nonnull align 8 dereferenceable(144) %1) #15
  store ptr %7, ptr %3, align 8
  %8 = ptrtoint ptr %3 to i64
  %9 = call noundef zeroext i1 @_ZNK5clang13CXXRecordDecl11forallBasesEN4llvm12function_refIFbPKS0_EEE(ptr noundef nonnull align 8 dereferenceable(144) %0, ptr nonnull @"_ZN4llvm12function_refIFbPKN5clang13CXXRecordDeclEEE11callback_fnIZNKS2_24isProvablyNotDerivedFromES4_E3$_0EEblS4_", i64 %8)
  ret i1 %9
}